target datalayout = "e-m:e-p270:32:32-p271:32:32-p272:64:64-i64:64-i128:128-f80:128-n8:16:32:64-S128"
target triple = "x86_64-pc-linux-gnu"

; Function Attrs: mustprogress nounwind uwtable
define dso_local noundef i32 @_ZN4Luau7combineENS_8RelationES0_(i32 noundef %0, i32 noundef %1) #2 {
  %3 = alloca i32, align 4
  %4 = alloca i32, align 4
  %5 = alloca i32, align 4
  store i32 %0, ptr %4, align 4, !tbaa !50
  store i32 %1, ptr %5, align 4, !tbaa !50
  %6 = load i32, ptr %4, align 4, !tbaa !50
  switch i32 %6, label %47 [
    i32 0, label %7
    i32 1, label %15
    i32 4, label %23
    i32 3, label %31
    i32 2, label %39
  ]

7:                                                ; preds = %2
  %8 = load i32, ptr %5, align 4, !tbaa !50
  switch i32 %8, label %14 [
    i32 0, label %9
    i32 1, label %10
    i32 2, label %11
    i32 3, label %12
    i32 4, label %13
  ]

9:                                                ; preds = %7
  store i32 0, ptr %3, align 4
  br label %48

10:                                               ; preds = %7
  store i32 4, ptr %3, align 4
  br label %48

11:                                               ; preds = %7
  store i32 2, ptr %3, align 4
  br label %48

12:                                               ; preds = %7
  store i32 2, ptr %3, align 4
  br label %48

13:                                               ; preds = %7
  store i32 2, ptr %3, align 4
  br label %48

14:                                               ; preds = %7
  br label %47

15:                                               ; preds = %2
  %16 = load i32, ptr %5, align 4, !tbaa !50
  switch i32 %16, label %22 [
    i32 0, label %17
    i32 1, label %18
    i32 2, label %19
    i32 3, label %20
    i32 4, label %21
  ]

17:                                               ; preds = %15
  store i32 1, ptr %3, align 4
  br label %48

18:                                               ; preds = %15
  store i32 1, ptr %3, align 4
  br label %48

19:                                               ; preds = %15
  store i32 4, ptr %3, align 4
  br label %48

20:                                               ; preds = %15
  store i32 1, ptr %3, align 4
  br label %48

21:                                               ; preds = %15
  store i32 2, ptr %3, align 4
  br label %48

22:                                               ; preds = %15
  br label %47

23:                                               ; preds = %2
  %24 = load i32, ptr %5, align 4, !tbaa !50
  switch i32 %24, label %30 [
    i32 0, label %25
    i32 1, label %26
    i32 2, label %27
    i32 3, label %28
    i32 4, label %29
  ]

25:                                               ; preds = %23
  store i32 4, ptr %3, align 4
  br label %48

26:                                               ; preds = %23
  store i32 4, ptr %3, align 4
  br label %48

27:                                               ; preds = %23
  store i32 2, ptr %3, align 4
  br label %48

28:                                               ; preds = %23
  store i32 2, ptr %3, align 4
  br label %48

29:                                               ; preds = %23
  store i32 4, ptr %3, align 4
  br label %48

30:                                               ; preds = %23
  br label %47

31:                                               ; preds = %2
  %32 = load i32, ptr %5, align 4, !tbaa !50
  switch i32 %32, label %38 [
    i32 0, label %33
    i32 1, label %34
    i32 2, label %35
    i32 3, label %36
    i32 4, label %37
  ]

33:                                               ; preds = %31
  store i32 3, ptr %3, align 4
  br label %48

34:                                               ; preds = %31
  store i32 1, ptr %3, align 4
  br label %48

35:                                               ; preds = %31
  store i32 2, ptr %3, align 4
  br label %48

36:                                               ; preds = %31
  store i32 3, ptr %3, align 4
  br label %48

37:                                               ; preds = %31
  store i32 2, ptr %3, align 4
  br label %48

38:                                               ; preds = %31
  br label %47

39:                                               ; preds = %2
  %40 = load i32, ptr %5, align 4, !tbaa !50
  switch i32 %40, label %46 [
    i32 0, label %41
    i32 1, label %42
    i32 2, label %43
    i32 3, label %44
    i32 4, label %45
  ]

41:                                               ; preds = %39
  store i32 2, ptr %3, align 4
  br label %48

42:                                               ; preds = %39
  store i32 4, ptr %3, align 4
  br label %48

43:                                               ; preds = %39
  store i32 2, ptr %3, align 4
  br label %48

44:                                               ; preds = %39
  store i32 2, ptr %3, align 4
  br label %48

45:                                               ; preds = %39
  store i32 2, ptr %3, align 4
  br label %48

46:                                               ; preds = %39
  br label %47

47:                                               ; preds = %2, %46, %38, %30, %22, %14
  unreachable

48:                                               ; preds = %45, %44, %43, %42, %41, %37, %36, %35, %34, %33, %29, %28, %27, %26, %25, %21, %20, %19, %18, %17, %13, %12, %11, %10, %9
  %49 = load i32, ptr %3, align 4
  ret i32 %49
}