; Function Attrs: mustprogress nofree norecurse nosync nounwind willreturn memory(none) uwtable
define dso_local noundef range(i32 0, 5) i32 @_ZN4Luau7combineENS_8RelationES0_(i32 noundef %0, i32 noundef %1) local_unnamed_addr #4 {
  switch i32 %0, label %6 [
    i32 0, label %switch.lookup
    i32 1, label %switch.lookup11
    i32 4, label %3
    i32 3, label %switch.lookup14
    i32 2, label %5
  ]

3:                                                ; preds = %2
  %4 = and i32 %1, -2
  %switch = icmp eq i32 %4, 2
  %. = select i1 %switch, i32 2, i32 4
  br label %10

5:                                                ; preds = %2
  %switch8 = icmp eq i32 %1, 1
  %.10 = select i1 %switch8, i32 4, i32 2
  br label %10

6:                                                ; preds = %2
  unreachable

switch.lookup:                                    ; preds = %2
  %7 = sext i32 %1 to i64
  %switch.gep = getelementptr inbounds [5 x i32], ptr @switch.table._ZN4Luau7combineENS_8RelationES0_, i64 0, i64 %7
  %switch.load = load i32, ptr %switch.gep, align 4
  br label %10

switch.lookup11:                                  ; preds = %2
  %8 = sext i32 %1 to i64
  %switch.gep12 = getelementptr inbounds [5 x i32], ptr @switch.table._ZN4Luau7combineENS_8RelationES0_.7, i64 0, i64 %8
  %switch.load13 = load i32, ptr %switch.gep12, align 4
  br label %10

switch.lookup14:                                  ; preds = %2
  %9 = sext i32 %1 to i64
  %switch.gep15 = getelementptr inbounds [5 x i32], ptr @switch.table._ZN4Luau7combineENS_8RelationES0_.8, i64 0, i64 %9
  %switch.load16 = load i32, ptr %switch.gep15, align 4
  br label %10

10:                                               ; preds = %switch.lookup14, %switch.lookup11, %switch.lookup, %5, %3
  %.0 = phi i32 [ %., %3 ], [ %.10, %5 ], [ %switch.load, %switch.lookup ], [ %switch.load13, %switch.lookup11 ], [ %switch.load16, %switch.lookup14 ]
  ret i32 %.0
}